target datalayout = "e-m:e-p270:32:32-p271:32:32-p272:64:64-i64:64-i128:128-f80:128-n8:16:32:64-S128"
target triple = "x86_64-pc-linux-gnu"

; Function Attrs: nounwind uwtable
define void @vec_negate(ptr noundef %0, i64 noundef %1) #0 {
  %3 = alloca ptr, align 8
  %4 = alloca i64, align 8
  %5 = alloca i64, align 8
  store ptr %0, ptr %3, align 8, !tbaa !3
  store i64 %1, ptr %4, align 8, !tbaa !10
  call void @llvm.lifetime.start.p0(i64 8, ptr %5) #3
  store i64 0, ptr %5, align 8, !tbaa !10
  br label %6

6:                                                ; preds = %19, %2
  %7 = load i64, ptr %5, align 8, !tbaa !10
  %8 = load i64, ptr %4, align 8, !tbaa !10
  %9 = icmp slt i64 %7, %8
  br i1 %9, label %10, label %22

10:                                               ; preds = %6
  %11 = load ptr, ptr %3, align 8, !tbaa !3
  %12 = load i64, ptr %5, align 8, !tbaa !10
  %13 = getelementptr inbounds double, ptr %11, i64 %12
  %14 = load double, ptr %13, align 8, !tbaa !8
  %15 = fneg double %14
  %16 = load ptr, ptr %3, align 8, !tbaa !3
  %17 = load i64, ptr %5, align 8, !tbaa !10
  %18 = getelementptr inbounds double, ptr %16, i64 %17
  store double %15, ptr %18, align 8, !tbaa !8
  br label %19

19:                                               ; preds = %10
  %20 = load i64, ptr %5, align 8, !tbaa !10
  %21 = add nsw i64 %20, 1
  store i64 %21, ptr %5, align 8, !tbaa !10
  br label %6, !llvm.loop !15

22:                                               ; preds = %6
  call void @llvm.lifetime.end.p0(i64 8, ptr %5) #3
  ret void
}