; Function Attrs: nofree norecurse nosync nounwind memory(argmem: readwrite) uwtable
define void @vec_negate(ptr noundef captures(none) %0, i64 noundef %1) local_unnamed_addr #1 {
  %3 = icmp sgt i64 %1, 0
  br i1 %3, label %.lr.ph, label %._crit_edge

.lr.ph:                                           ; preds = %2, %.lr.ph
  %.06 = phi i64 [ %7, %.lr.ph ], [ 0, %2 ]
  %4 = getelementptr inbounds nuw double, ptr %0, i64 %.06
  %5 = load double, ptr %4, align 8, !tbaa !3
  %6 = fneg double %5
  store double %6, ptr %4, align 8, !tbaa !3
  %7 = add nuw nsw i64 %.06, 1
  %exitcond.not = icmp eq i64 %7, %1
  br i1 %exitcond.not, label %._crit_edge, label %.lr.ph, !llvm.loop !10

._crit_edge:                                      ; preds = %.lr.ph, %2
  ret void
}